target datalayout = "e-m:e-p270:32:32-p271:32:32-p272:64:64-i64:64-i128:128-f80:128-n8:16:32:64-S128"
target triple = "x86_64-pc-linux-gnu"

; Function Attrs: mustprogress uwtable
define dso_local void @_Z5CSqrtffRfS_(float noundef %0, float noundef %1, ptr noundef nonnull align 4 dereferenceable(4) %2, ptr noundef nonnull align 4 dereferenceable(4) %3) #2 {
  %5 = alloca float, align 4
  %6 = alloca float, align 4
  %7 = alloca ptr, align 8
  %8 = alloca ptr, align 8
  %9 = alloca float, align 4
  store float %0, ptr %5, align 4, !tbaa !14
  store float %1, ptr %6, align 4, !tbaa !14
  store ptr %2, ptr %7, align 8, !tbaa !12
  store ptr %3, ptr %8, align 8, !tbaa !12
  call void @llvm.lifetime.start.p0(i64 4, ptr %9) #8
  %10 = load float, ptr %5, align 4, !tbaa !14
  %11 = load float, ptr %5, align 4, !tbaa !14
  %12 = load float, ptr %6, align 4, !tbaa !14
  %13 = load float, ptr %6, align 4, !tbaa !14
  %14 = fmul float %12, %13
  %15 = call float @llvm.fmuladd.f32(float %10, float %11, float %14)
  %16 = call noundef float @_ZSt4sqrtf(float noundef %15)
  store float %16, ptr %9, align 4, !tbaa !14
  %17 = load float, ptr %6, align 4, !tbaa !14
  %18 = fcmp oeq float %17, 0.000000e+00
  br i1 %18, label %19, label %33

19:                                               ; preds = %4
  %20 = load float, ptr %9, align 4, !tbaa !14
  %21 = call noundef float @_ZSt4sqrtf(float noundef %20)
  store float %21, ptr %9, align 4, !tbaa !14
  %22 = load float, ptr %5, align 4, !tbaa !14
  %23 = fcmp oge float %22, 0.000000e+00
  br i1 %23, label %24, label %28

24:                                               ; preds = %19
  %25 = load float, ptr %9, align 4, !tbaa !14
  %26 = load ptr, ptr %7, align 8, !tbaa !12
  store float %25, ptr %26, align 4, !tbaa !14
  %27 = load ptr, ptr %8, align 8, !tbaa !12
  store float 0.000000e+00, ptr %27, align 4, !tbaa !14
  br label %32

28:                                               ; preds = %19
  %29 = load ptr, ptr %7, align 8, !tbaa !12
  store float 0.000000e+00, ptr %29, align 4, !tbaa !14
  %30 = load float, ptr %9, align 4, !tbaa !14
  %31 = load ptr, ptr %8, align 8, !tbaa !12
  store float %30, ptr %31, align 4, !tbaa !14
  br label %32

32:                                               ; preds = %28, %24
  br label %51

33:                                               ; preds = %4
  %34 = load float, ptr %5, align 4, !tbaa !14
  %35 = load float, ptr %9, align 4, !tbaa !14
  %36 = fadd float %34, %35
  %37 = fpext float %36 to double
  %38 = fmul double 5.000000e-01, %37
  %39 = call double @sqrt(double noundef %38) #8, !tbaa !9
  %40 = fptrunc double %39 to float
  %41 = load ptr, ptr %7, align 8, !tbaa !12
  store float %40, ptr %41, align 4, !tbaa !14
  %42 = load float, ptr %6, align 4, !tbaa !14
  %43 = fpext float %42 to double
  %44 = fmul double 5.000000e-01, %43
  %45 = load ptr, ptr %7, align 8, !tbaa !12
  %46 = load float, ptr %45, align 4, !tbaa !14
  %47 = fpext float %46 to double
  %48 = fdiv double %44, %47
  %49 = fptrunc double %48 to float
  %50 = load ptr, ptr %8, align 8, !tbaa !12
  store float %49, ptr %50, align 4, !tbaa !14
  br label %51

51:                                               ; preds = %33, %32
  call void @llvm.lifetime.end.p0(i64 4, ptr %9) #8
  ret void
}

; Function Attrs: inlinehint mustprogress nounwind uwtable
define linkonce_odr dso_local noundef float @_ZSt4sqrtf(float noundef %0) #5 comdat {
  %2 = alloca float, align 4
  store float %0, ptr %2, align 4, !tbaa !14
  %3 = load float, ptr %2, align 4, !tbaa !14
  %4 = call float @sqrtf(float noundef %3) #8, !tbaa !9
  ret float %4
}

; Function Attrs: mustprogress uwtable
define dso_local noundef i32 @_Z9SolveP4BiPfff(ptr noundef %0, float noundef %1, float noundef %2) #2 {
  %4 = alloca i32, align 4
  %5 = alloca ptr, align 8
  %6 = alloca float, align 4
  %7 = alloca float, align 4
  %8 = alloca float, align 4
  %9 = alloca float, align 4
  %10 = alloca float, align 4
  %11 = alloca float, align 4
  %12 = alloca float, align 4
  %13 = alloca float, align 4
  %14 = alloca i32, align 4
  %15 = alloca float, align 4
  %16 = alloca float, align 4
  %17 = alloca float, align 4
  %18 = alloca float, align 4
  %19 = alloca float, align 4
  store ptr %0, ptr %5, align 8, !tbaa !12
  store float %1, ptr %6, align 4, !tbaa !14
  store float %2, ptr %7, align 4, !tbaa !14
  call void @llvm.lifetime.start.p0(i64 4, ptr %8) #8
  %20 = load float, ptr %6, align 4, !tbaa !14
  %21 = load float, ptr %6, align 4, !tbaa !14
  %22 = load float, ptr %7, align 4, !tbaa !14
  %23 = fmul float 4.000000e+00, %22
  %24 = fneg float %23
  %25 = call float @llvm.fmuladd.f32(float %20, float %21, float %24)
  store float %25, ptr %8, align 4, !tbaa !14
  %26 = load float, ptr %8, align 4, !tbaa !14
  %27 = fcmp oge float %26, 0.000000e+00
  br i1 %27, label %28, label %101

28:                                               ; preds = %3
  call void @llvm.lifetime.start.p0(i64 4, ptr %9) #8
  %29 = load float, ptr %8, align 4, !tbaa !14
  %30 = call noundef float @_ZSt4sqrtf(float noundef %29)
  store float %30, ptr %9, align 4, !tbaa !14
  call void @llvm.lifetime.start.p0(i64 4, ptr %10) #8
  %31 = load float, ptr %6, align 4, !tbaa !14
  %32 = fneg float %31
  %33 = load float, ptr %9, align 4, !tbaa !14
  %34 = fadd float %32, %33
  %35 = fdiv float %34, 2.000000e+00
  store float %35, ptr %10, align 4, !tbaa !14
  call void @llvm.lifetime.start.p0(i64 4, ptr %11) #8
  %36 = load float, ptr %6, align 4, !tbaa !14
  %37 = fneg float %36
  %38 = load float, ptr %9, align 4, !tbaa !14
  %39 = fsub float %37, %38
  %40 = fdiv float %39, 2.000000e+00
  store float %40, ptr %11, align 4, !tbaa !14
  %41 = load float, ptr %11, align 4, !tbaa !14
  %42 = fcmp oge float %41, 0.000000e+00
  br i1 %42, label %43, label %62

43:                                               ; preds = %28
  call void @llvm.lifetime.start.p0(i64 4, ptr %12) #8
  %44 = load float, ptr %10, align 4, !tbaa !14
  %45 = call noundef float @_ZSt4sqrtf(float noundef %44)
  store float %45, ptr %12, align 4, !tbaa !14
  call void @llvm.lifetime.start.p0(i64 4, ptr %13) #8
  %46 = load float, ptr %11, align 4, !tbaa !14
  %47 = call noundef float @_ZSt4sqrtf(float noundef %46)
  store float %47, ptr %13, align 4, !tbaa !14
  %48 = load float, ptr %12, align 4, !tbaa !14
  %49 = fneg float %48
  %50 = load ptr, ptr %5, align 8, !tbaa !12
  %51 = getelementptr inbounds float, ptr %50, i64 0
  store float %49, ptr %51, align 4, !tbaa !14
  %52 = load float, ptr %12, align 4, !tbaa !14
  %53 = load ptr, ptr %5, align 8, !tbaa !12
  %54 = getelementptr inbounds float, ptr %53, i64 1
  store float %52, ptr %54, align 4, !tbaa !14
  %55 = load float, ptr %13, align 4, !tbaa !14
  %56 = fneg float %55
  %57 = load ptr, ptr %5, align 8, !tbaa !12
  %58 = getelementptr inbounds float, ptr %57, i64 2
  store float %56, ptr %58, align 4, !tbaa !14
  %59 = load float, ptr %13, align 4, !tbaa !14
  %60 = load ptr, ptr %5, align 8, !tbaa !12
  %61 = getelementptr inbounds float, ptr %60, i64 3
  store float %59, ptr %61, align 4, !tbaa !14
  store i32 4, ptr %4, align 4
  store i32 1, ptr %14, align 4
  call void @llvm.lifetime.end.p0(i64 4, ptr %13) #8
  call void @llvm.lifetime.end.p0(i64 4, ptr %12) #8
  br label %100

62:                                               ; preds = %28
  %63 = load float, ptr %10, align 4, !tbaa !14
  %64 = fcmp olt float %63, 0.000000e+00
  br i1 %64, label %65, label %82

65:                                               ; preds = %62
  call void @llvm.lifetime.start.p0(i64 4, ptr %15) #8
  %66 = load float, ptr %10, align 4, !tbaa !14
  %67 = fneg float %66
  %68 = call noundef float @_ZSt4sqrtf(float noundef %67)
  store float %68, ptr %15, align 4, !tbaa !14
  call void @llvm.lifetime.start.p0(i64 4, ptr %16) #8
  %69 = load float, ptr %11, align 4, !tbaa !14
  %70 = fneg float %69
  %71 = call noundef float @_ZSt4sqrtf(float noundef %70)
  store float %71, ptr %16, align 4, !tbaa !14
  %72 = load ptr, ptr %5, align 8, !tbaa !12
  %73 = getelementptr inbounds float, ptr %72, i64 0
  store float 0.000000e+00, ptr %73, align 4, !tbaa !14
  %74 = load float, ptr %15, align 4, !tbaa !14
  %75 = load ptr, ptr %5, align 8, !tbaa !12
  %76 = getelementptr inbounds float, ptr %75, i64 1
  store float %74, ptr %76, align 4, !tbaa !14
  %77 = load ptr, ptr %5, align 8, !tbaa !12
  %78 = getelementptr inbounds float, ptr %77, i64 2
  store float 0.000000e+00, ptr %78, align 4, !tbaa !14
  %79 = load float, ptr %16, align 4, !tbaa !14
  %80 = load ptr, ptr %5, align 8, !tbaa !12
  %81 = getelementptr inbounds float, ptr %80, i64 3
  store float %79, ptr %81, align 4, !tbaa !14
  store i32 0, ptr %4, align 4
  store i32 1, ptr %14, align 4
  call void @llvm.lifetime.end.p0(i64 4, ptr %16) #8
  call void @llvm.lifetime.end.p0(i64 4, ptr %15) #8
  br label %100

82:                                               ; preds = %62
  call void @llvm.lifetime.start.p0(i64 4, ptr %17) #8
  %83 = load float, ptr %10, align 4, !tbaa !14
  %84 = call noundef float @_ZSt4sqrtf(float noundef %83)
  store float %84, ptr %17, align 4, !tbaa !14
  call void @llvm.lifetime.start.p0(i64 4, ptr %18) #8
  %85 = load float, ptr %11, align 4, !tbaa !14
  %86 = fneg float %85
  %87 = call noundef float @_ZSt4sqrtf(float noundef %86)
  store float %87, ptr %18, align 4, !tbaa !14
  %88 = load float, ptr %17, align 4, !tbaa !14
  %89 = fneg float %88
  %90 = load ptr, ptr %5, align 8, !tbaa !12
  %91 = getelementptr inbounds float, ptr %90, i64 0
  store float %89, ptr %91, align 4, !tbaa !14
  %92 = load float, ptr %17, align 4, !tbaa !14
  %93 = load ptr, ptr %5, align 8, !tbaa !12
  %94 = getelementptr inbounds float, ptr %93, i64 1
  store float %92, ptr %94, align 4, !tbaa !14
  %95 = load ptr, ptr %5, align 8, !tbaa !12
  %96 = getelementptr inbounds float, ptr %95, i64 2
  store float 0.000000e+00, ptr %96, align 4, !tbaa !14
  %97 = load float, ptr %18, align 4, !tbaa !14
  %98 = load ptr, ptr %5, align 8, !tbaa !12
  %99 = getelementptr inbounds float, ptr %98, i64 3
  store float %97, ptr %99, align 4, !tbaa !14
  store i32 2, ptr %4, align 4
  store i32 1, ptr %14, align 4
  call void @llvm.lifetime.end.p0(i64 4, ptr %18) #8
  call void @llvm.lifetime.end.p0(i64 4, ptr %17) #8
  br label %100

100:                                              ; preds = %82, %65, %43
  call void @llvm.lifetime.end.p0(i64 4, ptr %11) #8
  call void @llvm.lifetime.end.p0(i64 4, ptr %10) #8
  call void @llvm.lifetime.end.p0(i64 4, ptr %9) #8
  br label %127

101:                                              ; preds = %3
  call void @llvm.lifetime.start.p0(i64 4, ptr %19) #8
  %102 = load float, ptr %8, align 4, !tbaa !14
  %103 = fneg float %102
  %104 = call noundef float @_ZSt4sqrtf(float noundef %103)
  %105 = fpext float %104 to double
  %106 = fmul double 5.000000e-01, %105
  %107 = fptrunc double %106 to float
  store float %107, ptr %19, align 4, !tbaa !14
  %108 = load float, ptr %6, align 4, !tbaa !14
  %109 = fpext float %108 to double
  %110 = fmul double -5.000000e-01, %109
  %111 = fptrunc double %110 to float
  %112 = load float, ptr %19, align 4, !tbaa !14
  %113 = load ptr, ptr %5, align 8, !tbaa !12
  %114 = getelementptr inbounds float, ptr %113, i64 0
  %115 = load ptr, ptr %5, align 8, !tbaa !12
  %116 = getelementptr inbounds float, ptr %115, i64 1
  call void @_Z5CSqrtffRfS_(float noundef %111, float noundef %112, ptr noundef nonnull align 4 dereferenceable(4) %114, ptr noundef nonnull align 4 dereferenceable(4) %116)
  %117 = load float, ptr %6, align 4, !tbaa !14
  %118 = fpext float %117 to double
  %119 = fmul double -5.000000e-01, %118
  %120 = fptrunc double %119 to float
  %121 = load float, ptr %19, align 4, !tbaa !14
  %122 = fneg float %121
  %123 = load ptr, ptr %5, align 8, !tbaa !12
  %124 = getelementptr inbounds float, ptr %123, i64 2
  %125 = load ptr, ptr %5, align 8, !tbaa !12
  %126 = getelementptr inbounds float, ptr %125, i64 3
  call void @_Z5CSqrtffRfS_(float noundef %120, float noundef %122, ptr noundef nonnull align 4 dereferenceable(4) %124, ptr noundef nonnull align 4 dereferenceable(4) %126)
  store i32 0, ptr %4, align 4
  store i32 1, ptr %14, align 4
  call void @llvm.lifetime.end.p0(i64 4, ptr %19) #8
  br label %127

127:                                              ; preds = %101, %100
  call void @llvm.lifetime.end.p0(i64 4, ptr %8) #8
  %128 = load i32, ptr %4, align 4
  ret i32 %128
}