; Function Attrs: mustprogress nofree nounwind willreturn memory(write) uwtable
define dso_local noundef range(i32 0, 5) i32 @_Z9SolveP4BiPfff(ptr noundef writeonly captures(none) initializes((0, 16)) %0, float noundef %1, float noundef %2) local_unnamed_addr #0 {
  %4 = fmul float %2, -4.000000e+00
  %5 = tail call float @llvm.fmuladd.f32(float %1, float %1, float %4)
  %6 = fcmp ult float %5, 0.000000e+00
  br i1 %6, label %38, label %7

7:                                                ; preds = %3
  %8 = tail call noundef float @sqrtf(float noundef %5) #7, !tbaa !4
  %9 = fneg float %1
  %10 = fsub float %8, %1
  %11 = fmul float %10, 5.000000e-01
  %12 = fsub float %9, %8
  %13 = fmul float %12, 5.000000e-01
  %14 = fcmp ult float %13, 0.000000e+00
  br i1 %14, label %23, label %15

15:                                               ; preds = %7
  %16 = tail call noundef float @sqrtf(float noundef %11) #7, !tbaa !4
  %17 = tail call noundef float @sqrtf(float noundef %13) #7, !tbaa !4
  %18 = fneg float %16
  store float %18, ptr %0, align 4, !tbaa !8
  %19 = getelementptr inbounds nuw i8, ptr %0, i64 4
  store float %16, ptr %19, align 4, !tbaa !8
  %20 = fneg float %17
  %21 = getelementptr inbounds nuw i8, ptr %0, i64 8
  store float %20, ptr %21, align 4, !tbaa !8
  %22 = getelementptr inbounds nuw i8, ptr %0, i64 12
  store float %17, ptr %22, align 4, !tbaa !8
  br label %77

23:                                               ; preds = %7
  %24 = fcmp olt float %11, 0.000000e+00
  %25 = getelementptr inbounds nuw i8, ptr %0, i64 4
  %26 = getelementptr inbounds nuw i8, ptr %0, i64 8
  %27 = getelementptr inbounds nuw i8, ptr %0, i64 12
  br i1 %24, label %28, label %33

28:                                               ; preds = %23
  %29 = fneg float %11
  %30 = tail call noundef float @sqrtf(float noundef %29) #7, !tbaa !4
  %31 = fneg float %13
  %32 = tail call noundef float @sqrtf(float noundef %31) #7, !tbaa !4
  store float 0.000000e+00, ptr %0, align 4, !tbaa !8
  store float %30, ptr %25, align 4, !tbaa !8
  store float 0.000000e+00, ptr %26, align 4, !tbaa !8
  store float %32, ptr %27, align 4, !tbaa !8
  br label %77

33:                                               ; preds = %23
  %34 = tail call noundef float @sqrtf(float noundef %11) #7, !tbaa !4
  %35 = fneg float %13
  %36 = tail call noundef float @sqrtf(float noundef %35) #7, !tbaa !4
  %37 = fneg float %34
  store float %37, ptr %0, align 4, !tbaa !8
  store float %34, ptr %25, align 4, !tbaa !8
  store float 0.000000e+00, ptr %26, align 4, !tbaa !8
  store float %36, ptr %27, align 4, !tbaa !8
  br label %77

38:                                               ; preds = %3
  %39 = fneg float %5
  %40 = tail call noundef float @sqrtf(float noundef %39) #7, !tbaa !4
  %41 = fmul float %40, 5.000000e-01
  %42 = fmul float %1, -5.000000e-01
  %43 = getelementptr inbounds nuw i8, ptr %0, i64 4
  %44 = fmul float %41, %41
  %45 = tail call float @llvm.fmuladd.f32(float %42, float %42, float %44)
  %sqrt.i = tail call float @llvm.sqrt.f32(float %45)
  %46 = fcmp oeq float %41, 0.000000e+00
  br i1 %46, label %47, label %53

47:                                               ; preds = %38
  %sqrt19.i = tail call float @llvm.sqrt.f32(float %sqrt.i)
  %48 = fcmp ult float %42, 0.000000e+00
  %.sqrt19.i = select i1 %48, float 0.000000e+00, float %sqrt19.i
  %sqrt19.i. = select i1 %48, float %sqrt19.i, float 0.000000e+00
  store float %.sqrt19.i, ptr %0, align 4, !tbaa !8
  store float %sqrt19.i., ptr %43, align 4, !tbaa !8
  %49 = getelementptr inbounds nuw i8, ptr %0, i64 8
  %sqrt19.i55 = tail call float @llvm.sqrt.f32(float %sqrt.i)
  %50 = fcmp ult float %42, 0.000000e+00
  br i1 %50, label %52, label %51

51:                                               ; preds = %47
  store float %sqrt19.i55, ptr %49, align 4, !tbaa !8
  br label %_Z5CSqrtffRfS_.exit56

52:                                               ; preds = %47
  store float 0.000000e+00, ptr %49, align 4, !tbaa !8
  br label %_Z5CSqrtffRfS_.exit56

53:                                               ; preds = %38
  %54 = fadd float %42, %sqrt.i
  %55 = fpext float %54 to double
  %56 = fmul double %55, 5.000000e-01
  %57 = tail call double @sqrt(double noundef %56) #7, !tbaa !4
  %58 = fptrunc double %57 to float
  store float %58, ptr %0, align 4, !tbaa !8
  %59 = fpext float %41 to double
  %60 = fmul double %59, 5.000000e-01
  %61 = fpext float %58 to double
  %62 = fdiv double %60, %61
  %63 = fptrunc double %62 to float
  store float %63, ptr %43, align 4, !tbaa !8
  %64 = getelementptr inbounds nuw i8, ptr %0, i64 8
  %65 = fneg float %41
  %66 = fadd float %42, %sqrt.i
  %67 = fpext float %66 to double
  %68 = fmul double %67, 5.000000e-01
  %69 = tail call double @sqrt(double noundef %68) #7, !tbaa !4
  %70 = fptrunc double %69 to float
  store float %70, ptr %64, align 4, !tbaa !8
  %71 = fpext float %65 to double
  %72 = fmul double %71, 5.000000e-01
  %73 = fpext float %70 to double
  %74 = fdiv double %72, %73
  %75 = fptrunc double %74 to float
  br label %_Z5CSqrtffRfS_.exit56

_Z5CSqrtffRfS_.exit56:                            ; preds = %51, %52, %53
  %.sink.i54 = phi float [ 0.000000e+00, %51 ], [ %sqrt19.i55, %52 ], [ %75, %53 ]
  %76 = getelementptr inbounds nuw i8, ptr %0, i64 12
  store float %.sink.i54, ptr %76, align 4, !tbaa !8
  br label %77

77:                                               ; preds = %15, %28, %33, %_Z5CSqrtffRfS_.exit56
  %.1 = phi i32 [ 0, %_Z5CSqrtffRfS_.exit56 ], [ 4, %15 ], [ 0, %28 ], [ 2, %33 ]
  ret i32 %.1
}